target datalayout = "e-m:e-p270:32:32-p271:32:32-p272:64:64-i64:64-i128:128-f80:128-n8:16:32:64-S128"
target triple = "x86_64-pc-linux-gnu"

%struct.png_XYZ = type { i32, i32, i32, i32, i32, i32, i32, i32, i32 }
%struct.png_xy = type { i32, i32, i32, i32, i32, i32, i32, i32 }
%struct.png_struct_def = type { [1 x %struct.__jmp_buf_tag], ptr, ptr, i64, ptr, ptr, ptr, ptr, ptr, ptr, ptr, ptr, ptr, i8, i8, i32, i32, i32, i32, %struct.z_stream_s, ptr, i32, i32, i32, i32, i32, i32, i32, i32, i32, i32, i32, i32, i32, i32, i32, i32, i32, i32, i32, i32, i64, i32, i32, i32, ptr, ptr, ptr, ptr, i64, i32, i32, ptr, i16, i32, i16, i8, i8, i8, i8, i8, i8, i8, i8, i8, i8, i8, i8, i8, i8, i8, i16, i8, i32, %struct.png_color_16_struct, %struct.png_color_16_struct, ptr, i32, i32, i32, i32, ptr, ptr, ptr, ptr, ptr, ptr, %struct.png_color_8_struct, %struct.png_color_8_struct, ptr, %struct.png_color_16_struct, ptr, ptr, ptr, ptr, ptr, ptr, ptr, ptr, ptr, i32, i32, i64, i64, i64, i64, i32, i32, ptr, ptr, i32, [29 x i8], i32, ptr, ptr, i32, i32, ptr, i8, i8, i16, i16, ptr, i32, i8, ptr, ptr, ptr, ptr, ptr, ptr, ptr, i8, i32, i32, i32, i64, %struct.png_unknown_chunk_t, i64, ptr, i64, i32, i32, ptr, [4 x ptr], %struct.png_colorspace }
%struct.__jmp_buf_tag = type { [8 x i64], i32, %struct.__sigset_t }
%struct.__sigset_t = type { [16 x i64] }
%struct.z_stream_s = type { ptr, i32, i64, ptr, i32, i64, ptr, ptr, ptr, ptr, ptr, i32, i64, i64 }
%struct.png_color_8_struct = type { i8, i8, i8, i8, i8 }
%struct.png_color_16_struct = type { i8, i16, i16, i16, i16 }
%struct.png_unknown_chunk_t = type { [5 x i8], ptr, i64, i8 }
%struct.png_colorspace = type { i32, %struct.png_xy, %struct.png_XYZ, i16, i16 }

@.str.10 = private unnamed_addr constant [28 x i8] c"unexpected zlib return code\00", align 1
@.str.11 = private unnamed_addr constant [28 x i8] c"unexpected end of LZ stream\00", align 1
@.str.12 = private unnamed_addr constant [22 x i8] c"missing LZ dictionary\00", align 1
@.str.13 = private unnamed_addr constant [14 x i8] c"zlib IO error\00", align 1
@.str.14 = private unnamed_addr constant [23 x i8] c"bad parameters to zlib\00", align 1
@.str.15 = private unnamed_addr constant [18 x i8] c"damaged LZ stream\00", align 1
@.str.16 = private unnamed_addr constant [20 x i8] c"insufficient memory\00", align 1
@.str.17 = private unnamed_addr constant [10 x i8] c"truncated\00", align 1
@.str.18 = private unnamed_addr constant [25 x i8] c"unsupported zlib version\00", align 1
@.str.19 = private unnamed_addr constant [23 x i8] c"unexpected zlib return\00", align 1

; Function Attrs: nounwind uwtable
define void @png_zstream_error(ptr noalias noundef %0, i32 noundef %1) #0 {
  %3 = alloca ptr, align 8
  %4 = alloca i32, align 4
  store ptr %0, ptr %3, align 8
  store i32 %1, ptr %4, align 4
  %5 = load ptr, ptr %3, align 8
  %6 = getelementptr inbounds %struct.png_struct_def, ptr %5, i32 0, i32 19
  %7 = getelementptr inbounds %struct.z_stream_s, ptr %6, i32 0, i32 6
  %8 = load ptr, ptr %7, align 8
  %9 = icmp eq ptr %8, null
  br i1 %9, label %10, label %54

10:                                               ; preds = %2
  %11 = load i32, ptr %4, align 4
  switch i32 %11, label %12 [
    i32 0, label %13
    i32 1, label %17
    i32 2, label %21
    i32 -1, label %25
    i32 -2, label %29
    i32 -3, label %33
    i32 -4, label %37
    i32 -5, label %41
    i32 -6, label %45
    i32 -7, label %49
  ]

12:                                               ; preds = %10
  br label %13

13:                                               ; preds = %12, %10
  %14 = load ptr, ptr %3, align 8
  %15 = getelementptr inbounds %struct.png_struct_def, ptr %14, i32 0, i32 19
  %16 = getelementptr inbounds %struct.z_stream_s, ptr %15, i32 0, i32 6
  store ptr @.str.10, ptr %16, align 8
  br label %53

17:                                               ; preds = %10
  %18 = load ptr, ptr %3, align 8
  %19 = getelementptr inbounds %struct.png_struct_def, ptr %18, i32 0, i32 19
  %20 = getelementptr inbounds %struct.z_stream_s, ptr %19, i32 0, i32 6
  store ptr @.str.11, ptr %20, align 8
  br label %53

21:                                               ; preds = %10
  %22 = load ptr, ptr %3, align 8
  %23 = getelementptr inbounds %struct.png_struct_def, ptr %22, i32 0, i32 19
  %24 = getelementptr inbounds %struct.z_stream_s, ptr %23, i32 0, i32 6
  store ptr @.str.12, ptr %24, align 8
  br label %53

25:                                               ; preds = %10
  %26 = load ptr, ptr %3, align 8
  %27 = getelementptr inbounds %struct.png_struct_def, ptr %26, i32 0, i32 19
  %28 = getelementptr inbounds %struct.z_stream_s, ptr %27, i32 0, i32 6
  store ptr @.str.13, ptr %28, align 8
  br label %53

29:                                               ; preds = %10
  %30 = load ptr, ptr %3, align 8
  %31 = getelementptr inbounds %struct.png_struct_def, ptr %30, i32 0, i32 19
  %32 = getelementptr inbounds %struct.z_stream_s, ptr %31, i32 0, i32 6
  store ptr @.str.14, ptr %32, align 8
  br label %53

33:                                               ; preds = %10
  %34 = load ptr, ptr %3, align 8
  %35 = getelementptr inbounds %struct.png_struct_def, ptr %34, i32 0, i32 19
  %36 = getelementptr inbounds %struct.z_stream_s, ptr %35, i32 0, i32 6
  store ptr @.str.15, ptr %36, align 8
  br label %53

37:                                               ; preds = %10
  %38 = load ptr, ptr %3, align 8
  %39 = getelementptr inbounds %struct.png_struct_def, ptr %38, i32 0, i32 19
  %40 = getelementptr inbounds %struct.z_stream_s, ptr %39, i32 0, i32 6
  store ptr @.str.16, ptr %40, align 8
  br label %53

41:                                               ; preds = %10
  %42 = load ptr, ptr %3, align 8
  %43 = getelementptr inbounds %struct.png_struct_def, ptr %42, i32 0, i32 19
  %44 = getelementptr inbounds %struct.z_stream_s, ptr %43, i32 0, i32 6
  store ptr @.str.17, ptr %44, align 8
  br label %53

45:                                               ; preds = %10
  %46 = load ptr, ptr %3, align 8
  %47 = getelementptr inbounds %struct.png_struct_def, ptr %46, i32 0, i32 19
  %48 = getelementptr inbounds %struct.z_stream_s, ptr %47, i32 0, i32 6
  store ptr @.str.18, ptr %48, align 8
  br label %53

49:                                               ; preds = %10
  %50 = load ptr, ptr %3, align 8
  %51 = getelementptr inbounds %struct.png_struct_def, ptr %50, i32 0, i32 19
  %52 = getelementptr inbounds %struct.z_stream_s, ptr %51, i32 0, i32 6
  store ptr @.str.19, ptr %52, align 8
  br label %53

53:                                               ; preds = %49, %45, %41, %37, %33, %29, %25, %21, %17, %13
  br label %54

54:                                               ; preds = %53, %2
  ret void
}