; Function Attrs: mustprogress nofree norecurse nosync nounwind willreturn memory(argmem: readwrite) uwtable
define void @png_zstream_error(ptr noalias nocapture noundef %0, i32 noundef %1) local_unnamed_addr #15 {
  %3 = getelementptr inbounds i8, ptr %0, i64 368
  %4 = load ptr, ptr %3, align 8
  %5 = icmp eq ptr %4, null
  br i1 %5, label %6, label %9

6:                                                ; preds = %2
  %switch.tableidx = add i32 %1, 7
  %7 = icmp ult i32 %switch.tableidx, 10
  br i1 %7, label %switch.lookup, label %.sink.split

switch.lookup:                                    ; preds = %6
  %8 = zext nneg i32 %switch.tableidx to i64
  %switch.gep = getelementptr inbounds [10 x ptr], ptr @switch.table.png_zstream_error, i64 0, i64 %8
  %switch.load = load ptr, ptr %switch.gep, align 8
  br label %.sink.split

.sink.split:                                      ; preds = %switch.lookup, %6
  %.str.10.sink = phi ptr [ @.str.10, %6 ], [ %switch.load, %switch.lookup ]
  store ptr %.str.10.sink, ptr %3, align 8
  br label %9

9:                                                ; preds = %.sink.split, %2
  ret void
}